; Function Attrs: mustprogress nofree norecurse nosync nounwind sspstrong willreturn memory(none) uwtable
define dso_local range(i32 0, 2) i32 @rb_is_attrset_id(i64 noundef %0) local_unnamed_addr #6 {
  %2 = icmp eq i64 %0, 146
  br i1 %2, label %9, label %3

3:                                                ; preds = %1
  %4 = icmp ugt i64 %0, 170
  %5 = and i64 %0, 14
  %6 = icmp eq i64 %5, 8
  %7 = and i1 %4, %6
  %8 = zext i1 %7 to i32
  br label %9

9:                                                ; preds = %3, %1
  %10 = phi i32 [ 1, %1 ], [ %8, %3 ]
  ret i32 %10
}